target datalayout = "e-m:e-p270:32:32-p271:32:32-p272:64:64-i64:64-i128:128-f80:128-n8:16:32:64-S128"
target triple = "x86_64-pc-linux-gnu"

%struct.aiString = type { i32, [1024 x i8] }
%class.aiVector3t = type { float, float, float }
%struct.aiCamera = type { %struct.aiString, %class.aiVector3t, %class.aiVector3t, %class.aiVector3t, float, float, float, float, float }

; Function Attrs: mustprogress nounwind uwtable
define linkonce_odr hidden void @_ZN10aiVector3tIfEC2Efff(ptr noundef nonnull align 4 dereferenceable(12) %0, float noundef %1, float noundef %2, float noundef %3) unnamed_addr #0 comdat align 2 {
  %5 = alloca ptr, align 8
  %6 = alloca float, align 4
  %7 = alloca float, align 4
  %8 = alloca float, align 4
  store ptr %0, ptr %5, align 8
  store float %1, ptr %6, align 4
  store float %2, ptr %7, align 4
  store float %3, ptr %8, align 4
  %9 = load ptr, ptr %5, align 8
  %10 = getelementptr inbounds nuw %class.aiVector3t, ptr %9, i32 0, i32 0
  %11 = load float, ptr %6, align 4
  store float %11, ptr %10, align 4
  %12 = getelementptr inbounds nuw %class.aiVector3t, ptr %9, i32 0, i32 1
  %13 = load float, ptr %7, align 4
  store float %13, ptr %12, align 4
  %14 = getelementptr inbounds nuw %class.aiVector3t, ptr %9, i32 0, i32 2
  %15 = load float, ptr %8, align 4
  store float %15, ptr %14, align 4
  ret void
}

; Function Attrs: inlinehint mustprogress uwtable
define linkonce_odr hidden { <2 x float>, float } @_ZmiIfE10aiVector3tIT_ERKS2_S4_(ptr noundef nonnull align 4 dereferenceable(12) %0, ptr noundef nonnull align 4 dereferenceable(12) %1) #5 comdat {
  %3 = alloca %class.aiVector3t, align 4
  %4 = alloca ptr, align 8
  %5 = alloca ptr, align 8
  %6 = alloca { <2 x float>, float }, align 8
  store ptr %0, ptr %4, align 8
  store ptr %1, ptr %5, align 8
  %7 = load ptr, ptr %4, align 8
  %8 = getelementptr inbounds nuw %class.aiVector3t, ptr %7, i32 0, i32 0
  %9 = load float, ptr %8, align 4
  %10 = load ptr, ptr %5, align 8
  %11 = getelementptr inbounds nuw %class.aiVector3t, ptr %10, i32 0, i32 0
  %12 = load float, ptr %11, align 4
  %13 = fsub float %9, %12
  %14 = load ptr, ptr %4, align 8
  %15 = getelementptr inbounds nuw %class.aiVector3t, ptr %14, i32 0, i32 1
  %16 = load float, ptr %15, align 4
  %17 = load ptr, ptr %5, align 8
  %18 = getelementptr inbounds nuw %class.aiVector3t, ptr %17, i32 0, i32 1
  %19 = load float, ptr %18, align 4
  %20 = fsub float %16, %19
  %21 = load ptr, ptr %4, align 8
  %22 = getelementptr inbounds nuw %class.aiVector3t, ptr %21, i32 0, i32 2
  %23 = load float, ptr %22, align 4
  %24 = load ptr, ptr %5, align 8
  %25 = getelementptr inbounds nuw %class.aiVector3t, ptr %24, i32 0, i32 2
  %26 = load float, ptr %25, align 4
  %27 = fsub float %23, %26
  call void @_ZN10aiVector3tIfEC2Efff(ptr noundef nonnull align 4 dereferenceable(12) %3, float noundef %13, float noundef %20, float noundef %27)
  call void @llvm.memcpy.p0.p0.i64(ptr align 8 %6, ptr align 4 %3, i64 12, i1 false)
  %28 = load { <2 x float>, float }, ptr %6, align 8
  ret { <2 x float>, float } %28
}

; Function Attrs: inlinehint mustprogress uwtable
define linkonce_odr hidden { <2 x float>, float } @_ZmlIfE10aiVector3tIT_ES1_RKS2_(float noundef %0, ptr noundef nonnull align 4 dereferenceable(12) %1) #5 comdat {
  %3 = alloca %class.aiVector3t, align 4
  %4 = alloca float, align 4
  %5 = alloca ptr, align 8
  %6 = alloca { <2 x float>, float }, align 8
  store float %0, ptr %4, align 4
  store ptr %1, ptr %5, align 8
  %7 = load float, ptr %4, align 4
  %8 = load ptr, ptr %5, align 8
  %9 = getelementptr inbounds nuw %class.aiVector3t, ptr %8, i32 0, i32 0
  %10 = load float, ptr %9, align 4
  %11 = fmul float %7, %10
  %12 = load float, ptr %4, align 4
  %13 = load ptr, ptr %5, align 8
  %14 = getelementptr inbounds nuw %class.aiVector3t, ptr %13, i32 0, i32 1
  %15 = load float, ptr %14, align 4
  %16 = fmul float %12, %15
  %17 = load float, ptr %4, align 4
  %18 = load ptr, ptr %5, align 8
  %19 = getelementptr inbounds nuw %class.aiVector3t, ptr %18, i32 0, i32 2
  %20 = load float, ptr %19, align 4
  %21 = fmul float %17, %20
  call void @_ZN10aiVector3tIfEC2Efff(ptr noundef nonnull align 4 dereferenceable(12) %3, float noundef %11, float noundef %16, float noundef %21)
  call void @llvm.memcpy.p0.p0.i64(ptr align 8 %6, ptr align 4 %3, i64 12, i1 false)
  %22 = load { <2 x float>, float }, ptr %6, align 8
  ret { <2 x float>, float } %22
}

; Function Attrs: mustprogress uwtable
define hidden void @_ZN6Assimp21MakeLeftHandedProcess13ProcessCameraEP8aiCamera(ptr noundef nonnull align 8 dereferenceable(24) %0, ptr noundef %1) #4 align 2 {
  %3 = alloca ptr, align 8
  %4 = alloca ptr, align 8
  %5 = alloca %class.aiVector3t, align 4
  %6 = alloca %class.aiVector3t, align 4
  %7 = alloca { <2 x float>, float }, align 8
  %8 = alloca { <2 x float>, float }, align 8
  store ptr %0, ptr %3, align 8
  store ptr %1, ptr %4, align 8
  call void @llvm.lifetime.start.p0(i64 12, ptr %5) #12
  call void @llvm.lifetime.start.p0(i64 12, ptr %6) #12
  %9 = load ptr, ptr %4, align 8
  %10 = getelementptr inbounds nuw %struct.aiCamera, ptr %9, i32 0, i32 1
  %11 = call { <2 x float>, float } @_ZmlIfE10aiVector3tIT_ES1_RKS2_(float noundef 2.000000e+00, ptr noundef nonnull align 4 dereferenceable(12) %10)
  store { <2 x float>, float } %11, ptr %7, align 8
  call void @llvm.memcpy.p0.p0.i64(ptr align 4 %6, ptr align 8 %7, i64 12, i1 false)
  %12 = load ptr, ptr %4, align 8
  %13 = getelementptr inbounds nuw %struct.aiCamera, ptr %12, i32 0, i32 3
  %14 = call { <2 x float>, float } @_ZmiIfE10aiVector3tIT_ERKS2_S4_(ptr noundef nonnull align 4 dereferenceable(12) %6, ptr noundef nonnull align 4 dereferenceable(12) %13)
  store { <2 x float>, float } %14, ptr %8, align 8
  call void @llvm.memcpy.p0.p0.i64(ptr align 4 %5, ptr align 8 %8, i64 12, i1 false)
  %15 = load ptr, ptr %4, align 8
  %16 = getelementptr inbounds nuw %struct.aiCamera, ptr %15, i32 0, i32 3
  call void @llvm.memcpy.p0.p0.i64(ptr align 4 %16, ptr align 4 %5, i64 12, i1 false)
  call void @llvm.lifetime.end.p0(i64 12, ptr %6) #12
  call void @llvm.lifetime.end.p0(i64 12, ptr %5) #12
  ret void
}