; Function Attrs: mustprogress nofree norecurse nosync nounwind willreturn memory(argmem: readwrite) uwtable
define hidden void @_ZN6Assimp21MakeLeftHandedProcess13ProcessCameraEP8aiCamera(ptr noundef nonnull readnone align 8 captures(none) dereferenceable(24) %0, ptr noundef captures(none) %1) local_unnamed_addr #7 align 2 {
  %3 = getelementptr inbounds nuw i8, ptr %1, i64 1028
  %4 = load float, ptr %3, align 4
  %5 = fmul float %4, 2.000000e+00
  %6 = getelementptr inbounds nuw i8, ptr %1, i64 1032
  %7 = load float, ptr %6, align 4
  %8 = fmul float %7, 2.000000e+00
  %9 = getelementptr inbounds nuw i8, ptr %1, i64 1036
  %10 = load float, ptr %9, align 4
  %11 = fmul float %10, 2.000000e+00
  %12 = getelementptr inbounds nuw i8, ptr %1, i64 1052
  %13 = load float, ptr %12, align 4
  %14 = fsub float %5, %13
  %15 = getelementptr inbounds nuw i8, ptr %1, i64 1056
  %16 = load float, ptr %15, align 4
  %17 = fsub float %8, %16
  %18 = getelementptr inbounds nuw i8, ptr %1, i64 1060
  %19 = load float, ptr %18, align 4
  %20 = fsub float %11, %19
  %.sroa.0.0.vec.insert.i8 = insertelement <2 x float> poison, float %14, i64 0
  %.sroa.0.4.vec.insert.i9 = insertelement <2 x float> %.sroa.0.0.vec.insert.i8, float %17, i64 1
  store <2 x float> %.sroa.0.4.vec.insert.i9, ptr %12, align 4
  store float %20, ptr %18, align 4
  ret void
}